; Function Attrs: mustprogress uwtable
define noundef ptr @_ZN3re29Prefilter9OrStringsEPSt3setINSt7__cxx1112basic_stringIcSt11char_traitsIcESaIcEEENS0_13LengthThenLexESaIS7_EE(ptr noundef %ss) local_unnamed_addr #0 align 2 personality ptr @__gxx_personality_v0 {
entry:
  %call = tail call noalias noundef nonnull dereferenceable(56) ptr @_Znwm(i64 noundef 56) #17
  invoke void @_ZN3re29PrefilterC1ENS0_2OpE(ptr noundef nonnull align 8 dereferenceable(52) %call, i32 noundef 1)
          to label %invoke.cont unwind label %lpad

invoke.cont:                                      ; preds = %entry
  tail call void @_ZN3re29Prefilter17SimplifyStringSetEPSt3setINSt7__cxx1112basic_stringIcSt11char_traitsIcESaIcEEENS0_13LengthThenLexESaIS7_EE(ptr noundef %ss)
  %_M_left.i.i = getelementptr inbounds i8, ptr %ss, i64 24
  %0 = load ptr, ptr %_M_left.i.i, align 8
  %add.ptr.i.i = getelementptr inbounds i8, ptr %ss, i64 8
  %cmp.i.not9 = icmp eq ptr %0, %add.ptr.i.i
  br i1 %cmp.i.not9, label %for.end, label %for.body

for.body:                                         ; preds = %invoke.cont, %_ZN3re29Prefilter10FromStringERKNSt7__cxx1112basic_stringIcSt11char_traitsIcESaIcEEE.exit
  %or_prefilter.011 = phi ptr [ %call.i4, %_ZN3re29Prefilter10FromStringERKNSt7__cxx1112basic_stringIcSt11char_traitsIcESaIcEEE.exit ], [ %call, %invoke.cont ]
  %i.sroa.0.010 = phi ptr [ %call.i5, %_ZN3re29Prefilter10FromStringERKNSt7__cxx1112basic_stringIcSt11char_traitsIcESaIcEEE.exit ], [ %0, %invoke.cont ]
  %call.i = tail call noalias noundef nonnull dereferenceable(56) ptr @_Znwm(i64 noundef 56) #17
  invoke void @_ZN3re29PrefilterC1ENS0_2OpE(ptr noundef nonnull align 8 dereferenceable(52) %call.i, i32 noundef 2)
          to label %_ZN3re29Prefilter10FromStringERKNSt7__cxx1112basic_stringIcSt11char_traitsIcESaIcEEE.exit unwind label %lpad.i

common.resume:                                    ; preds = %lpad, %lpad.i
  %call.sink = phi ptr [ %call, %lpad ], [ %call.i, %lpad.i ]
  %common.resume.op = phi { ptr, i32 } [ %2, %lpad ], [ %1, %lpad.i ]
  tail call void @_ZdlPv(ptr noundef nonnull %call.sink) #18
  resume { ptr, i32 } %common.resume.op

lpad.i:                                           ; preds = %for.body
  %1 = landingpad { ptr, i32 }
          cleanup
  br label %common.resume

_ZN3re29Prefilter10FromStringERKNSt7__cxx1112basic_stringIcSt11char_traitsIcESaIcEEE.exit: ; preds = %for.body
  %_M_storage.i.i = getelementptr inbounds i8, ptr %i.sroa.0.010, i64 32
  %atom_.i = getelementptr inbounds i8, ptr %call.i, i64 16
  %call1.i = tail call noundef nonnull align 8 dereferenceable(32) ptr @_ZNSt7__cxx1112basic_stringIcSt11char_traitsIcESaIcEEaSERKS4_(ptr noundef nonnull align 8 dereferenceable(32) %atom_.i, ptr noundef nonnull align 8 dereferenceable(32) %_M_storage.i.i)
  %call.i4 = tail call noundef ptr @_ZN3re29Prefilter5AndOrENS0_2OpEPS0_S2_(i32 noundef 4, ptr noundef %or_prefilter.011, ptr noundef nonnull %call.i)
  %call.i5 = tail call noundef ptr @_ZSt18_Rb_tree_incrementPKSt18_Rb_tree_node_base(ptr noundef %i.sroa.0.010) #20
  %cmp.i.not = icmp eq ptr %call.i5, %add.ptr.i.i
  br i1 %cmp.i.not, label %for.end, label %for.body, !llvm.loop !9

lpad:                                             ; preds = %entry
  %2 = landingpad { ptr, i32 }
          cleanup
  br label %common.resume

for.end:                                          ; preds = %_ZN3re29Prefilter10FromStringERKNSt7__cxx1112basic_stringIcSt11char_traitsIcESaIcEEE.exit, %invoke.cont
  %or_prefilter.0.lcssa = phi ptr [ %call, %invoke.cont ], [ %call.i4, %_ZN3re29Prefilter10FromStringERKNSt7__cxx1112basic_stringIcSt11char_traitsIcESaIcEEE.exit ]
  ret ptr %or_prefilter.0.lcssa
}